	.cpu cortex-m0plus
	.arch armv6s-m
	.fpu softvfp
	.eabi_attribute 20, 1
	.eabi_attribute 21, 1
	.eabi_attribute 23, 3
	.eabi_attribute 24, 1
	.eabi_attribute 25, 1
	.eabi_attribute 26, 1
	.eabi_attribute 30, 2
	.eabi_attribute 34, 0
	.eabi_attribute 18, 4
	.file	"tusb-test.c"
	.text
.Ltext0:
	.cfi_sections	.debug_frame
	.file 1 "/media/henry/Google Drives/h.c.gernhardt.iii@gmail.com/Google Drive/08: Hobby Things/02: CoCo/hardware-hackery/kb-usb-to-coco/tusb-test/tusb-test.c"
	.section	.rodata.led_blinking_task.part.0.str1.4,"aMS",%progbits,1
	.align	2
.LC4:
	.ascii	"Running LED task\000"
	.section	.text.led_blinking_task.part.0,"ax",%progbits
	.align	1
	.p2align 2,,3
	.syntax unified
	.code	16
	.thumb_func
	.type	led_blinking_task.part.0, %function
led_blinking_task.part.0:
.LFB236:
	.loc 1 146 6 view -0
	.cfi_startproc
	@ args = 0, pretend = 0, frame = 0
	@ frame_needed = 0, uses_anonymous_args = 0
	.loc 1 153 2 view .LVU1
	.loc 1 146 6 is_stmt 0 view .LVU2
	push	{r4, lr}
	.cfi_def_cfa_offset 8
	.cfi_offset 4, -8
	.cfi_offset 14, -4
	.loc 1 153 2 view .LVU3
	ldr	r0, .L5
	bl	puts
.LVL0:
	.loc 1 155 2 is_stmt 1 view .LVU4
	.loc 1 155 11 is_stmt 0 view .LVU5
	ldr	r2, .L5+4
	.loc 1 156 2 view .LVU6
	ldr	r4, .L5+8
	.loc 1 155 11 view .LVU7
	ldr	r3, [r2]
	.loc 1 156 2 view .LVU8
	ldrb	r0, [r4]
	.loc 1 155 11 view .LVU9
	adds	r3, r3, #250
	str	r3, [r2]
	.loc 1 156 2 is_stmt 1 view .LVU10
	bl	board_led_write
.LVL1:
	.loc 1 157 2 view .LVU11
	.loc 1 157 12 is_stmt 0 view .LVU12
	movs	r2, #1
	ldrb	r3, [r4]
	eors	r3, r2
	strb	r3, [r4]
	.loc 1 160 2 is_stmt 1 view .LVU13
.LVL2:
.LBB95:
.LBI95:
	.file 2 "/home/henry/.pico-sdk/sdk/2.0.0/src/rp2_common/hardware_gpio/include/hardware/gpio.h"
	.loc 2 1145 20 view .LVU14
.LBB96:
	.loc 2 1149 5 view .LVU15
	.loc 2 1150 5 view .LVU16
	.loc 2 1151 9 view .LVU17
.LBB97:
.LBI97:
	.loc 2 908 20 view .LVU18
.LBB98:
	.loc 2 912 5 view .LVU19
	.loc 2 912 22 is_stmt 0 view .LVU20
	movs	r3, #208
	movs	r2, #4
	lsls	r3, r3, #24
	str	r2, [r3, #20]
.LVL3:
	.loc 2 912 22 view .LVU21
.LBE98:
.LBE97:
.LBE96:
.LBE95:
	.loc 1 161 2 is_stmt 1 view .LVU22
	.syntax divided
@ 161 "/media/henry/Google Drives/h.c.gernhardt.iii@gmail.com/Google Drive/08: Hobby Things/02: CoCo/hardware-hackery/kb-usb-to-coco/tusb-test/tusb-test.c" 1
	nop
	nop
@ 0 "" 2
	.loc 1 161 2 view .LVU23
@ 161 "/media/henry/Google Drives/h.c.gernhardt.iii@gmail.com/Google Drive/08: Hobby Things/02: CoCo/hardware-hackery/kb-usb-to-coco/tusb-test/tusb-test.c" 1
	nop
	nop
@ 0 "" 2
	.loc 1 161 2 view .LVU24
@ 161 "/media/henry/Google Drives/h.c.gernhardt.iii@gmail.com/Google Drive/08: Hobby Things/02: CoCo/hardware-hackery/kb-usb-to-coco/tusb-test/tusb-test.c" 1
	nop
	nop
@ 0 "" 2
	.loc 1 161 2 view .LVU25
@ 161 "/media/henry/Google Drives/h.c.gernhardt.iii@gmail.com/Google Drive/08: Hobby Things/02: CoCo/hardware-hackery/kb-usb-to-coco/tusb-test/tusb-test.c" 1
	nop
	nop
@ 0 "" 2
	.loc 1 161 14 view .LVU26
	.loc 1 162 2 view .LVU27
.LVL4:
	.thumb
	.syntax unified
.LBB99:
.LBI99:
	.loc 2 1145 20 view .LVU28
.LBB100:
	.loc 2 1149 5 view .LVU29
	.loc 2 1150 5 view .LVU30
	.loc 2 1153 9 view .LVU31
.LBB101:
.LBI101:
	.loc 2 955 20 view .LVU32
.LBB102:
	.loc 2 959 5 view .LVU33
	.loc 2 959 22 is_stmt 0 view .LVU34
	str	r2, [r3, #24]
.LVL5:
	.loc 2 959 22 view .LVU35
.LBE102:
.LBE101:
.LBE100:
.LBE99:
	.loc 1 163 2 is_stmt 1 view .LVU36
	.syntax divided
@ 163 "/media/henry/Google Drives/h.c.gernhardt.iii@gmail.com/Google Drive/08: Hobby Things/02: CoCo/hardware-hackery/kb-usb-to-coco/tusb-test/tusb-test.c" 1
	nop
	nop
@ 0 "" 2
	.loc 1 163 2 view .LVU37
@ 163 "/media/henry/Google Drives/h.c.gernhardt.iii@gmail.com/Google Drive/08: Hobby Things/02: CoCo/hardware-hackery/kb-usb-to-coco/tusb-test/tusb-test.c" 1
	nop
	nop
@ 0 "" 2
	.loc 1 163 2 view .LVU38
@ 163 "/media/henry/Google Drives/h.c.gernhardt.iii@gmail.com/Google Drive/08: Hobby Things/02: CoCo/hardware-hackery/kb-usb-to-coco/tusb-test/tusb-test.c" 1
	nop
	nop
@ 0 "" 2
	.loc 1 163 2 view .LVU39
@ 163 "/media/henry/Google Drives/h.c.gernhardt.iii@gmail.com/Google Drive/08: Hobby Things/02: CoCo/hardware-hackery/kb-usb-to-coco/tusb-test/tusb-test.c" 1
	nop
	nop
@ 0 "" 2
	.loc 1 163 2 view .LVU40
@ 163 "/media/henry/Google Drives/h.c.gernhardt.iii@gmail.com/Google Drive/08: Hobby Things/02: CoCo/hardware-hackery/kb-usb-to-coco/tusb-test/tusb-test.c" 1
	nop
	nop
@ 0 "" 2
	.loc 1 163 2 view .LVU41
@ 163 "/media/henry/Google Drives/h.c.gernhardt.iii@gmail.com/Google Drive/08: Hobby Things/02: CoCo/hardware-hackery/kb-usb-to-coco/tusb-test/tusb-test.c" 1
	nop
	nop
@ 0 "" 2
	.loc 1 163 2 view .LVU42
@ 163 "/media/henry/Google Drives/h.c.gernhardt.iii@gmail.com/Google Drive/08: Hobby Things/02: CoCo/hardware-hackery/kb-usb-to-coco/tusb-test/tusb-test.c" 1
	nop
	nop
@ 0 "" 2
	.loc 1 163 2 view .LVU43
@ 163 "/media/henry/Google Drives/h.c.gernhardt.iii@gmail.com/Google Drive/08: Hobby Things/02: CoCo/hardware-hackery/kb-usb-to-coco/tusb-test/tusb-test.c" 1
	nop
	nop
@ 0 "" 2
	.loc 1 163 13 view .LVU44
	.loc 1 164 2 view .LVU45
.LVL6:
	.thumb
	.syntax unified
.LBB103:
.LBI103:
	.loc 2 1056 20 view .LVU46
.LBB104:
	.loc 2 1060 5 view .LVU47
.LBE104:
.LBE103:
	.loc 1 164 2 is_stmt 0 view .LVU48
	ldr	r1, .L5+12
.LBB106:
.LBB105:
	.loc 2 1060 32 view .LVU49
	ldr	r2, [r3, #16]
	.loc 2 1060 43 view .LVU50
	ldr	r0, [r1]
	eors	r2, r0
	.loc 2 1060 52 view .LVU51
	movs	r0, #254
	lsls	r0, r0, #3
	ands	r2, r0
	.loc 2 1060 23 view .LVU52
	str	r2, [r3, #28]
.LVL7:
	.loc 2 1060 23 view .LVU53
.LBE105:
.LBE106:
	.loc 1 168 2 is_stmt 1 view .LVU54
	.syntax divided
@ 168 "/media/henry/Google Drives/h.c.gernhardt.iii@gmail.com/Google Drive/08: Hobby Things/02: CoCo/hardware-hackery/kb-usb-to-coco/tusb-test/tusb-test.c" 1
	nop
	nop
@ 0 "" 2
	.loc 1 168 13 view .LVU55
	.loc 1 169 2 view .LVU56
.LVL8:
	.thumb
	.syntax unified
.LBB107:
.LBI107:
	.loc 2 1145 20 view .LVU57
.LBB108:
	.loc 2 1149 5 view .LVU58
	.loc 2 1150 5 view .LVU59
	.loc 2 1151 9 view .LVU60
.LBB109:
.LBI109:
	.loc 2 908 20 view .LVU61
.LBB110:
	.loc 2 912 5 view .LVU62
	.loc 2 912 22 is_stmt 0 view .LVU63
	movs	r2, #8
	str	r2, [r3, #20]
.LVL9:
	.loc 2 912 22 view .LVU64
.LBE110:
.LBE109:
.LBE108:
.LBE107:
	.loc 1 170 2 is_stmt 1 view .LVU65
	.syntax divided
@ 170 "/media/henry/Google Drives/h.c.gernhardt.iii@gmail.com/Google Drive/08: Hobby Things/02: CoCo/hardware-hackery/kb-usb-to-coco/tusb-test/tusb-test.c" 1
	nop
	nop
@ 0 "" 2
	.loc 1 170 2 view .LVU66
@ 170 "/media/henry/Google Drives/h.c.gernhardt.iii@gmail.com/Google Drive/08: Hobby Things/02: CoCo/hardware-hackery/kb-usb-to-coco/tusb-test/tusb-test.c" 1
	nop
	nop
@ 0 "" 2
	.loc 1 170 15 view .LVU67
	.loc 1 171 2 view .LVU68
.LVL10:
	.thumb
	.syntax unified
.LBB111:
.LBI111:
	.loc 2 1145 20 view .LVU69
.LBB112:
	.loc 2 1149 5 view .LVU70
	.loc 2 1150 5 view .LVU71
	.loc 2 1153 9 view .LVU72
.LBB113:
.LBI113:
	.loc 2 955 20 view .LVU73
.LBB114:
	.loc 2 959 5 view .LVU74
	.loc 2 959 22 is_stmt 0 view .LVU75
	str	r2, [r3, #24]
.LVL11:
	.loc 2 959 22 view .LVU76
.LBE114:
.LBE113:
.LBE112:
.LBE111:
	.loc 1 172 2 is_stmt 1 view .LVU77
	.syntax divided
@ 172 "/media/henry/Google Drives/h.c.gernhardt.iii@gmail.com/Google Drive/08: Hobby Things/02: CoCo/hardware-hackery/kb-usb-to-coco/tusb-test/tusb-test.c" 1
	nop
	nop
@ 0 "" 2
	.loc 1 172 13 view .LVU78
	.loc 1 173 2 view .LVU79
@ 173 "/media/henry/Google Drives/h.c.gernhardt.iii@gmail.com/Google Drive/08: Hobby Things/02: CoCo/hardware-hackery/kb-usb-to-coco/tusb-test/tusb-test.c" 1
	nop
	nop
@ 0 "" 2
	.loc 1 173 2 view .LVU80
@ 173 "/media/henry/Google Drives/h.c.gernhardt.iii@gmail.com/Google Drive/08: Hobby Things/02: CoCo/hardware-hackery/kb-usb-to-coco/tusb-test/tusb-test.c" 1
	nop
	nop
@ 0 "" 2
	.loc 1 173 2 view .LVU81
@ 173 "/media/henry/Google Drives/h.c.gernhardt.iii@gmail.com/Google Drive/08: Hobby Things/02: CoCo/hardware-hackery/kb-usb-to-coco/tusb-test/tusb-test.c" 1
	nop
	nop
@ 0 "" 2
	.loc 1 173 2 view .LVU82
@ 173 "/media/henry/Google Drives/h.c.gernhardt.iii@gmail.com/Google Drive/08: Hobby Things/02: CoCo/hardware-hackery/kb-usb-to-coco/tusb-test/tusb-test.c" 1
	nop
	nop
@ 0 "" 2
	.loc 1 173 2 view .LVU83
@ 173 "/media/henry/Google Drives/h.c.gernhardt.iii@gmail.com/Google Drive/08: Hobby Things/02: CoCo/hardware-hackery/kb-usb-to-coco/tusb-test/tusb-test.c" 1
	nop
	nop
@ 0 "" 2
	.loc 1 173 2 view .LVU84
@ 173 "/media/henry/Google Drives/h.c.gernhardt.iii@gmail.com/Google Drive/08: Hobby Things/02: CoCo/hardware-hackery/kb-usb-to-coco/tusb-test/tusb-test.c" 1
	nop
	nop
@ 0 "" 2
	.loc 1 173 2 view .LVU85
@ 173 "/media/henry/Google Drives/h.c.gernhardt.iii@gmail.com/Google Drive/08: Hobby Things/02: CoCo/hardware-hackery/kb-usb-to-coco/tusb-test/tusb-test.c" 1
	nop
	nop
@ 0 "" 2
	.loc 1 173 2 view .LVU86
@ 173 "/media/henry/Google Drives/h.c.gernhardt.iii@gmail.com/Google Drive/08: Hobby Things/02: CoCo/hardware-hackery/kb-usb-to-coco/tusb-test/tusb-test.c" 1
	nop
	nop
@ 0 "" 2
	.loc 1 173 13 view .LVU87
	.loc 1 174 2 view .LVU88
	.loc 1 174 15 is_stmt 0 view .LVU89
	.thumb
	.syntax unified
	ldr	r3, [r1]
	lsls	r3, r3, #1
	.loc 1 174 21 view .LVU90
	movs	r2, r3
	ands	r2, r0
	.loc 1 175 2 is_stmt 1 view .LVU91
	.loc 1 175 5 is_stmt 0 view .LVU92
	tst	r3, r0
	bne	.L2
	movs	r2, #4
.L2:
	.loc 1 176 1 view .LVU93
	@ sp needed
	.loc 1 174 7 view .LVU94
	str	r2, [r1]
	.loc 1 176 1 view .LVU95
	pop	{r4, pc}
.L6:
	.align	2
.L5:
	.word	.LC4
	.word	start_ms.2
	.word	led_state.1
	.word	pins.0
	.cfi_endproc
.LFE236:
	.size	led_blinking_task.part.0, .-led_blinking_task.part.0
	.section	.rodata.main.str1.4,"aMS",%progbits,1
	.align	2
.LC10:
	.ascii	"Initializing GPIOs\000"
	.align	2
.LC12:
	.ascii	"Initializing lookups\342\200\246\000"
	.align	2
.LC16:
	.ascii	"Populating lookups\342\200\246\000"
	.align	2
.LC18:
	.ascii	"Waiting for reports\342\200\246\000"
	.global	__aeabi_uldivmod
	.global	__aeabi_uidiv
	.section	.text.startup.main,"ax",%progbits
	.align	1
	.p2align 2,,3
	.global	main
	.syntax unified
	.code	16
	.thumb_func
	.type	main, %function
main:
.LFB226:
	.loc 1 106 1 is_stmt 1 view -0
	.cfi_startproc
	@ args = 0, pretend = 0, frame = 0
	@ frame_needed = 0, uses_anonymous_args = 0
	.loc 1 107 5 view .LVU97
	.loc 1 106 1 is_stmt 0 view .LVU98
	push	{r3, r4, r5, r6, r7, lr}
	.cfi_def_cfa_offset 24
	.cfi_offset 3, -24
	.cfi_offset 4, -20
	.cfi_offset 5, -16
	.cfi_offset 6, -12
	.cfi_offset 7, -8
	.cfi_offset 14, -4
	.loc 1 107 5 view .LVU99
	bl	stdio_init_all
.LVL12:
	.loc 1 108 2 is_stmt 1 view .LVU100
	bl	board_init
.LVL13:
	.loc 1 109 2 view .LVU101
	movs	r0, #0
	bl	tuh_init
.LVL14:
	.loc 1 110 2 view .LVU102
	.loc 1 110 5 is_stmt 0 view .LVU103
	ldr	r3, .L18
	cmp	r3, #0
	beq	.L8
	.loc 1 111 3 is_stmt 1 view .LVU104
	bl	board_init_after_tusb
.LVL15:
.L8:
	.loc 1 113 2 view .LVU105
	movs	r1, #1
	.loc 1 118 2 is_stmt 0 view .LVU106
	ldr	r4, .L18+4
	.loc 1 113 2 view .LVU107
	movs	r0, #0
	bl	gpio_set_outover
.LVL16:
	.loc 1 117 2 is_stmt 1 view .LVU108
	ldr	r0, .L18+8
	bl	puts
.LVL17:
	.loc 1 118 2 view .LVU109
	movs	r0, r4
	bl	gpio_init_mask
.LVL18:
	.loc 1 119 2 view .LVU110
.LBB130:
.LBI130:
	.loc 2 1208 20 view .LVU111
.LBB131:
	.loc 2 1212 5 view .LVU112
	.loc 2 1212 25 is_stmt 0 view .LVU113
	movs	r3, #208
	lsls	r3, r3, #24
	str	r4, [r3, #36]
.LVL19:
	.loc 2 1212 25 view .LVU114
.LBE131:
.LBE130:
	.loc 1 120 2 is_stmt 1 view .LVU115
.LBB132:
.LBI132:
	.loc 2 955 20 view .LVU116
.LBB133:
	.loc 2 959 5 view .LVU117
.LBE133:
.LBE132:
	.loc 1 124 2 is_stmt 0 view .LVU118
	ldr	r0, .L18+12
.LBB135:
.LBB134:
	.loc 2 959 22 view .LVU119
	str	r4, [r3, #24]
.LVL20:
	.loc 2 959 22 view .LVU120
.LBE134:
.LBE135:
	.loc 1 123 2 is_stmt 1 view .LVU121
	.loc 1 124 2 view .LVU122
	bl	puts
.LVL21:
	.loc 1 125 2 view .LVU123
	.loc 1 125 16 discriminator 1 view .LVU124
	.loc 1 126 20 is_stmt 0 view .LVU125
	movs	r2, #128
	ldr	r5, .L18+16
	movs	r1, #255
	lsls	r2, r2, #1
	movs	r0, r5
	bl	memset
.LVL22:
	.loc 1 127 20 view .LVU126
	movs	r2, #128
	ldr	r4, .L18+20
	movs	r1, #255
	lsls	r2, r2, #1
	movs	r0, r4
	bl	memset
.LVL23:
	.loc 1 129 2 is_stmt 1 view .LVU127
	.loc 1 129 35 is_stmt 0 view .LVU128
	movs	r6, #3
	movs	r3, #42
	.loc 1 130 35 view .LVU129
	movs	r7, #5
	.loc 1 131 2 view .LVU130
	ldr	r0, .L18+24
	.loc 1 130 35 view .LVU131
	strb	r7, [r4, r3]
	.loc 1 129 35 view .LVU132
	strb	r6, [r5, r3]
	.loc 1 130 2 is_stmt 1 view .LVU133
	.loc 1 131 2 view .LVU134
	bl	puts
.LVL24:
	.loc 1 132 2 view .LVU135
	.loc 1 132 16 discriminator 1 view .LVU136
	.loc 1 133 17 discriminator 1 view .LVU137
	.loc 1 134 4 view .LVU138
	.loc 1 135 4 view .LVU139
	.loc 1 133 23 discriminator 3 view .LVU140
	.loc 1 133 17 discriminator 1 view .LVU141
	.loc 1 134 4 view .LVU142
	.loc 1 135 4 view .LVU143
	.loc 1 133 23 discriminator 3 view .LVU144
	.loc 1 133 17 discriminator 1 view .LVU145
	.loc 1 134 4 view .LVU146
	.loc 1 135 4 view .LVU147
	.loc 1 133 23 discriminator 3 view .LVU148
	.loc 1 133 17 discriminator 1 view .LVU149
	.loc 1 134 4 view .LVU150
	.loc 1 135 4 view .LVU151
	.loc 1 133 23 discriminator 3 view .LVU152
	.loc 1 133 17 discriminator 1 view .LVU153
	.loc 1 134 4 view .LVU154
	.loc 1 135 4 view .LVU155
	.loc 1 133 23 discriminator 3 view .LVU156
	.loc 1 133 17 discriminator 1 view .LVU157
	.loc 1 134 4 view .LVU158
	.loc 1 135 4 view .LVU159
	.loc 1 133 23 discriminator 3 view .LVU160
	.loc 1 133 17 discriminator 1 view .LVU161
	.loc 1 134 4 view .LVU162
	.loc 1 135 4 view .LVU163
	.loc 1 133 23 discriminator 3 view .LVU164
	.loc 1 133 17 discriminator 1 view .LVU165
	.loc 1 134 4 view .LVU166
	.loc 1 135 4 view .LVU167
	.loc 1 133 23 discriminator 3 view .LVU168
	.loc 1 133 17 discriminator 1 view .LVU169
	.loc 1 132 22 discriminator 2 view .LVU170
	.loc 1 132 16 discriminator 1 view .LVU171
	.loc 1 133 17 discriminator 1 view .LVU172
	.loc 1 134 4 view .LVU173
	.loc 1 135 4 view .LVU174
	.loc 1 133 23 discriminator 3 view .LVU175
	.loc 1 133 17 discriminator 1 view .LVU176
	.loc 1 134 4 view .LVU177
	.loc 1 135 4 view .LVU178
	.loc 1 133 23 discriminator 3 view .LVU179
	.loc 1 133 17 discriminator 1 view .LVU180
	.loc 1 134 4 view .LVU181
	.loc 1 135 4 view .LVU182
	.loc 1 133 23 discriminator 3 view .LVU183
	.loc 1 133 17 discriminator 1 view .LVU184
	.loc 1 134 4 view .LVU185
	.loc 1 135 4 view .LVU186
	.loc 1 133 23 discriminator 3 view .LVU187
	.loc 1 133 17 discriminator 1 view .LVU188
	.loc 1 134 4 view .LVU189
	.loc 1 135 4 view .LVU190
	.loc 1 133 23 discriminator 3 view .LVU191
	.loc 1 133 17 discriminator 1 view .LVU192
	.loc 1 134 4 view .LVU193
	.loc 1 135 4 view .LVU194
	.loc 1 133 23 discriminator 3 view .LVU195
	.loc 1 133 17 discriminator 1 view .LVU196
	.loc 1 134 4 view .LVU197
	.loc 1 135 4 view .LVU198
	.loc 1 133 23 discriminator 3 view .LVU199
	.loc 1 133 17 discriminator 1 view .LVU200
	.loc 1 134 4 view .LVU201
	.loc 1 135 4 view .LVU202
	.loc 1 133 23 discriminator 3 view .LVU203
	.loc 1 133 17 discriminator 1 view .LVU204
	.loc 1 132 22 discriminator 2 view .LVU205
	.loc 1 132 16 discriminator 1 view .LVU206
	.loc 1 133 17 discriminator 1 view .LVU207
	.loc 1 134 4 view .LVU208
	.loc 1 135 4 view .LVU209
	.loc 1 133 23 discriminator 3 view .LVU210
	.loc 1 133 17 discriminator 1 view .LVU211
	.loc 1 134 4 view .LVU212
	.loc 1 135 4 view .LVU213
	.loc 1 133 23 discriminator 3 view .LVU214
	.loc 1 133 17 discriminator 1 view .LVU215
	.loc 1 134 4 view .LVU216
	.loc 1 135 4 view .LVU217
	.loc 1 133 23 discriminator 3 view .LVU218
	.loc 1 133 17 discriminator 1 view .LVU219
	.loc 1 134 4 view .LVU220
	.loc 1 135 4 view .LVU221
	.loc 1 133 23 discriminator 3 view .LVU222
	.loc 1 133 17 discriminator 1 view .LVU223
	.loc 1 134 4 view .LVU224
	.loc 1 135 4 view .LVU225
	.loc 1 133 23 discriminator 3 view .LVU226
	.loc 1 133 17 discriminator 1 view .LVU227
	.loc 1 134 4 view .LVU228
	.loc 1 135 4 view .LVU229
	.loc 1 133 23 discriminator 3 view .LVU230
	.loc 1 133 17 discriminator 1 view .LVU231
	.loc 1 134 4 view .LVU232
	.loc 1 135 4 view .LVU233
	.loc 1 133 23 discriminator 3 view .LVU234
	.loc 1 133 17 discriminator 1 view .LVU235
	.loc 1 134 4 view .LVU236
	.loc 1 135 4 view .LVU237
	.loc 1 133 23 discriminator 3 view .LVU238
	.loc 1 133 17 discriminator 1 view .LVU239
	.loc 1 132 22 discriminator 2 view .LVU240
	.loc 1 132 16 discriminator 1 view .LVU241
	.loc 1 133 17 discriminator 1 view .LVU242
	.loc 1 134 4 view .LVU243
	.loc 1 135 4 view .LVU244
	.loc 1 133 23 discriminator 3 view .LVU245
	.loc 1 133 17 discriminator 1 view .LVU246
	.loc 1 134 4 view .LVU247
	.loc 1 135 4 view .LVU248
	.loc 1 133 23 discriminator 3 view .LVU249
	.loc 1 133 17 discriminator 1 view .LVU250
	.loc 1 134 4 view .LVU251
	.loc 1 135 4 view .LVU252
	.loc 1 133 23 discriminator 3 view .LVU253
	.loc 1 133 17 discriminator 1 view .LVU254
	.loc 1 134 4 view .LVU255
	.loc 1 135 4 view .LVU256
	.loc 1 133 23 discriminator 3 view .LVU257
	.loc 1 133 17 discriminator 1 view .LVU258
	.loc 1 134 4 view .LVU259
	.loc 1 135 4 view .LVU260
	.loc 1 133 23 discriminator 3 view .LVU261
	.loc 1 133 17 discriminator 1 view .LVU262
	.loc 1 134 4 view .LVU263
	.loc 1 135 4 view .LVU264
	.loc 1 133 23 discriminator 3 view .LVU265
	.loc 1 133 17 discriminator 1 view .LVU266
	.loc 1 134 4 view .LVU267
	.loc 1 134 37 is_stmt 0 view .LVU268
	movs	r2, #82
	.loc 1 135 37 view .LVU269
	strb	r6, [r4, r2]
	.loc 1 134 37 view .LVU270
	strb	r6, [r5, r2]
	.loc 1 135 4 is_stmt 1 view .LVU271
	.loc 1 133 23 discriminator 3 view .LVU272
.LVL25:
	.loc 1 133 17 discriminator 1 view .LVU273
	.loc 1 134 4 view .LVU274
	.loc 1 135 4 view .LVU275
	.loc 1 133 23 discriminator 3 view .LVU276
	.loc 1 133 17 discriminator 1 view .LVU277
	.loc 1 132 22 discriminator 2 view .LVU278
	.loc 1 132 16 discriminator 1 view .LVU279
	.loc 1 133 17 discriminator 1 view .LVU280
	.loc 1 134 4 view .LVU281
	.loc 1 135 4 view .LVU282
	.loc 1 133 23 discriminator 3 view .LVU283
	.loc 1 133 17 discriminator 1 view .LVU284
	.loc 1 134 4 view .LVU285
	.loc 1 135 4 view .LVU286
	.loc 1 133 23 discriminator 3 view .LVU287
	.loc 1 133 17 discriminator 1 view .LVU288
	.loc 1 134 4 view .LVU289
	.loc 1 135 4 view .LVU290
	.loc 1 133 23 discriminator 3 view .LVU291
	.loc 1 133 17 discriminator 1 view .LVU292
	.loc 1 134 4 view .LVU293
	.loc 1 135 4 view .LVU294
	.loc 1 133 23 discriminator 3 view .LVU295
	.loc 1 133 17 discriminator 1 view .LVU296
	.loc 1 134 4 view .LVU297
	.loc 1 135 4 view .LVU298
	.loc 1 133 23 discriminator 3 view .LVU299
	.loc 1 133 17 discriminator 1 view .LVU300
	.loc 1 134 4 view .LVU301
	.loc 1 135 4 view .LVU302
	.loc 1 133 23 discriminator 3 view .LVU303
	.loc 1 133 17 discriminator 1 view .LVU304
	.loc 1 134 4 view .LVU305
	.loc 1 135 4 view .LVU306
	.loc 1 133 23 discriminator 3 view .LVU307
	.loc 1 133 17 discriminator 1 view .LVU308
	.loc 1 134 4 view .LVU309
	.loc 1 135 4 view .LVU310
	.loc 1 133 23 discriminator 3 view .LVU311
	.loc 1 133 17 discriminator 1 view .LVU312
	.loc 1 132 22 discriminator 2 view .LVU313
	.loc 1 132 16 discriminator 1 view .LVU314
	.loc 1 133 17 discriminator 1 view .LVU315
	.loc 1 134 4 view .LVU316
	.loc 1 135 4 view .LVU317
	.loc 1 133 23 discriminator 3 view .LVU318
	.loc 1 133 17 discriminator 1 view .LVU319
	.loc 1 134 4 view .LVU320
	.loc 1 134 37 is_stmt 0 view .LVU321
	movs	r2, #0
	str	r2, [r5, #4]
	movs	r2, #128
	movs	r1, #80
	lsls	r2, r2, #17
	str	r2, [r5, #8]
	ldr	r2, .L18+28
	ldr	r3, .L18+32
	str	r2, [r5, #12]
	ldr	r2, .L18+36
	strh	r3, [r5, r1]
	str	r2, [r5, #16]
	ldr	r2, .L18+40
	.loc 1 135 37 view .LVU322
	movs	r3, #6
	.loc 1 134 37 view .LVU323
	str	r2, [r5, #20]
	ldr	r2, .L18+44
	movs	r0, #79
	str	r2, [r5, #24]
	ldr	r2, .L18+48
	.loc 1 135 37 view .LVU324
	strb	r3, [r4, r0]
	.loc 1 134 37 view .LVU325
	str	r2, [r5, #28]
	ldr	r2, .L18+52
	strb	r6, [r5, r0]
	str	r2, [r5, #32]
	ldr	r2, .L18+56
	.loc 1 135 37 view .LVU326
	ldr	r0, .L18+60
	.loc 1 134 37 view .LVU327
	str	r2, [r5, #36]
	.loc 1 135 4 is_stmt 1 view .LVU328
	.loc 1 135 37 is_stmt 0 view .LVU329
	ldr	r2, .L18+64
	strh	r0, [r4, r1]
	str	r2, [r4, #8]
	str	r2, [r4, #16]
	str	r2, [r4, #24]
	ldr	r2, .L18+68
	ldr	r1, .L18+72
	str	r2, [r4, #28]
	ldr	r2, .L18+76
	str	r1, [r4, #4]
	str	r2, [r4, #32]
	ldr	r2, .L18+80
	str	r1, [r4, #12]
	str	r2, [r4, #36]
	.loc 1 133 23 is_stmt 1 discriminator 3 view .LVU330
.LVL26:
	.loc 1 133 17 discriminator 1 view .LVU331
	.loc 1 134 4 view .LVU332
	.loc 1 135 4 view .LVU333
	.loc 1 133 23 discriminator 3 view .LVU334
	.loc 1 133 17 discriminator 1 view .LVU335
	.loc 1 134 4 view .LVU336
	.loc 1 134 37 is_stmt 0 view .LVU337
	movs	r2, #51
	.loc 1 135 37 view .LVU338
	strb	r6, [r4, r2]
	.loc 1 134 37 view .LVU339
	strb	r7, [r5, r2]
	.loc 1 135 4 is_stmt 1 view .LVU340
	.loc 1 133 23 discriminator 3 view .LVU341
.LVL27:
	.loc 1 133 17 discriminator 1 view .LVU342
	.loc 1 134 4 view .LVU343
	.loc 1 135 4 view .LVU344
	.loc 1 133 23 discriminator 3 view .LVU345
	.loc 1 133 17 discriminator 1 view .LVU346
	.loc 1 134 4 view .LVU347
	.loc 1 134 37 is_stmt 0 view .LVU348
	ldr	r2, .L18+84
	.loc 1 135 37 view .LVU349
	str	r1, [r4, #20]
	.loc 1 134 37 view .LVU350
	str	r2, [r5, #44]
	.loc 1 135 4 is_stmt 1 view .LVU351
	.loc 1 135 37 is_stmt 0 view .LVU352
	ldr	r2, .L18+88
	.loc 1 134 37 view .LVU353
	movs	r1, #56
	.loc 1 135 37 view .LVU354
	str	r2, [r4, #44]
	.loc 1 133 23 is_stmt 1 discriminator 3 view .LVU355
.LVL28:
	.loc 1 133 17 discriminator 1 view .LVU356
	.loc 1 134 4 view .LVU357
	.loc 1 134 37 is_stmt 0 view .LVU358
	ldr	r2, .L18+92
	.loc 1 135 37 view .LVU359
	movs	r0, #1
	.loc 1 134 37 view .LVU360
	strh	r2, [r5, #54]
	.loc 1 135 4 is_stmt 1 view .LVU361
	.loc 1 135 37 is_stmt 0 view .LVU362
	ldr	r2, .L18+96
	.loc 1 134 37 view .LVU363
	strb	r7, [r5, r1]
	.loc 1 135 37 view .LVU364
	strh	r2, [r4, #54]
	.loc 1 133 23 is_stmt 1 discriminator 3 view .LVU365
.LVL29:
	.loc 1 133 17 discriminator 1 view .LVU366
	.loc 1 134 4 view .LVU367
	.loc 1 135 4 view .LVU368
	.loc 1 135 37 is_stmt 0 view .LVU369
	movs	r2, #7
	strb	r2, [r4, r1]
	.loc 1 133 23 is_stmt 1 discriminator 3 view .LVU370
.LVL30:
	.loc 1 133 17 discriminator 1 view .LVU371
	.loc 1 132 22 discriminator 2 view .LVU372
	.loc 1 132 16 discriminator 1 view .LVU373
	.loc 1 133 17 discriminator 1 view .LVU374
	.loc 1 134 4 view .LVU375
	.loc 1 135 4 view .LVU376
	.loc 1 133 23 discriminator 3 view .LVU377
	.loc 1 133 17 discriminator 1 view .LVU378
	.loc 1 134 4 view .LVU379
	.loc 1 134 37 is_stmt 0 view .LVU380
	adds	r1, r1, #18
	strb	r3, [r5, r1]
	.loc 1 135 4 is_stmt 1 view .LVU381
	.loc 1 135 37 is_stmt 0 view .LVU382
	strb	r0, [r4, r1]
	.loc 1 133 23 is_stmt 1 discriminator 3 view .LVU383
.LVL31:
	.loc 1 133 17 discriminator 1 view .LVU384
	.loc 1 134 4 view .LVU385
	.loc 1 135 37 is_stmt 0 view .LVU386
	movs	r0, #128
	.loc 1 134 37 view .LVU387
	ldr	r1, .L18+100
	.loc 1 135 37 view .LVU388
	lsls	r0, r0, #2
	.loc 1 134 37 view .LVU389
	strb	r3, [r5]
	.loc 1 135 37 view .LVU390
	ldr	r3, .L18+104
	strh	r0, [r4, #40]
	.loc 1 138 2 view .LVU391
	ldr	r0, .L18+108
	.loc 1 135 37 view .LVU392
	strh	r3, [r4, #58]
	strb	r2, [r4]
	.loc 1 134 37 view .LVU393
	strh	r1, [r5, #40]
	.loc 1 135 4 is_stmt 1 view .LVU394
	.loc 1 133 23 discriminator 3 view .LVU395
.LVL32:
	.loc 1 133 17 discriminator 1 view .LVU396
	.loc 1 134 4 view .LVU397
	.loc 1 135 4 view .LVU398
	.loc 1 133 23 discriminator 3 view .LVU399
	.loc 1 133 17 discriminator 1 view .LVU400
	.loc 1 134 4 view .LVU401
	.loc 1 135 4 view .LVU402
	.loc 1 133 23 discriminator 3 view .LVU403
	.loc 1 133 17 discriminator 1 view .LVU404
	.loc 1 134 4 view .LVU405
	.loc 1 135 4 view .LVU406
	.loc 1 133 23 discriminator 3 view .LVU407
	.loc 1 133 17 discriminator 1 view .LVU408
	.loc 1 134 4 view .LVU409
	.loc 1 134 37 is_stmt 0 view .LVU410
	strh	r1, [r5, #58]
	.loc 1 135 4 is_stmt 1 view .LVU411
	.loc 1 133 23 discriminator 3 view .LVU412
.LVL33:
	.loc 1 133 17 discriminator 1 view .LVU413
	.loc 1 134 4 view .LVU414
	.loc 1 135 4 view .LVU415
	.loc 1 133 23 discriminator 3 view .LVU416
	.loc 1 133 17 discriminator 1 view .LVU417
	.loc 1 132 22 discriminator 2 view .LVU418
	.loc 1 132 16 discriminator 1 view .LVU419
	.loc 1 138 2 view .LVU420
	bl	puts
.LVL34:
	ldr	r4, .L18+112
.L16:
	.loc 1 140 5 view .LVU421
	.loc 1 141 3 view .LVU422
.LBB136:
.LBI136:
	.file 3 "/home/henry/.pico-sdk/sdk/2.0.0/lib/tinyusb/src/host/usbh.h"
	.loc 3 140 6 view .LVU423
.LBB137:
	.loc 3 141 3 view .LVU424
	movs	r0, #1
	movs	r1, #0
	rsbs	r0, r0, #0
	bl	tuh_task_ext
.LVL35:
.LBE137:
.LBE136:
	.loc 1 142 3 discriminator 1 view .LVU425
.LBB138:
.LBI138:
	.loc 1 146 6 view .LVU426
.LBB139:
	.loc 1 147 2 view .LVU427
	.loc 1 148 2 view .LVU428
	.loc 1 149 2 view .LVU429
	.loc 1 150 2 view .LVU430
	.loc 1 152 2 view .LVU431
.LBB140:
.LBI140:
	.file 4 "/home/henry/.pico-sdk/sdk/2.0.0/lib/tinyusb/hw/bsp/board_api.h"
	.loc 4 114 24 view .LVU432
	.loc 4 115 3 view .LVU433
.LBB141:
.LBI141:
	.file 5 "/home/henry/.pico-sdk/sdk/2.0.0/src/common/pico_time/include/pico/time.h"
	.loc 5 66 31 view .LVU434
.LBB142:
	.loc 5 67 5 view .LVU435
	.loc 5 68 5 view .LVU436
	bl	time_us_64
.LVL36:
	.loc 5 69 5 view .LVU437
	.loc 5 69 5 is_stmt 0 view .LVU438
.LBE142:
.LBE141:
.LBB143:
.LBI143:
	.loc 5 87 24 is_stmt 1 view .LVU439
.LBB144:
	.loc 5 88 5 view .LVU440
	.loc 5 89 5 view .LVU441
.LBB145:
.LBI145:
	.loc 5 72 24 view .LVU442
.LBB146:
	.loc 5 73 5 view .LVU443
	.loc 5 73 8 is_stmt 0 view .LVU444
	cmp	r1, #0
	beq	.L9
	.loc 5 74 9 is_stmt 1 view .LVU445
.LVL37:
	.loc 5 74 30 is_stmt 0 view .LVU446
	movs	r2, #250
	movs	r3, #0
	lsls	r2, r2, #2
	bl	__aeabi_uldivmod
.LVL38:
	.loc 5 74 30 view .LVU447
.LBE146:
.LBE145:
.LBE144:
.LBE143:
.LBE140:
	.loc 1 152 21 discriminator 1 view .LVU448
	ldr	r3, [r4]
	subs	r0, r0, r3
	.loc 1 152 5 discriminator 1 view .LVU449
	cmp	r0, #249
	bls	.L16
.L12:
	bl	led_blinking_task.part.0
.LVL39:
	b	.L16
.LVL40:
.L9:
.LBB151:
.LBB150:
.LBB149:
.LBB148:
.LBB147:
	.loc 5 76 9 is_stmt 1 view .LVU450
	.loc 5 76 31 is_stmt 0 view .LVU451
	movs	r1, #250
.LVL41:
	.loc 5 76 31 view .LVU452
	lsls	r1, r1, #2
	bl	__aeabi_uidiv
.LVL42:
	.loc 5 76 31 view .LVU453
.LBE147:
.LBE148:
.LBE149:
.LBE150:
.LBE151:
	.loc 1 152 21 discriminator 1 view .LVU454
	ldr	r3, [r4]
	subs	r0, r0, r3
	.loc 1 152 5 discriminator 1 view .LVU455
	cmp	r0, #249
	bls	.L16
	b	.L12
.L19:
	.align	2
.L18:
	.word	board_init_after_tusb
	.word	2044
	.word	.LC10
	.word	.LC12
	.word	matrix_row_of
	.word	matrix_col_of
	.word	.LC16
	.word	16843009
	.word	771
	.word	33620225
	.word	33686018
	.word	50463234
	.word	67371779
	.word	67372036
	.word	67437828
	.word	1029
	.word	460293
	.word	33620481
	.word	67305985
	.word	100992003
	.word	65543
	.word	328963
	.word	328199
	.word	1285
	.word	1540
	.word	1542
	.word	1541
	.word	.LC18
	.word	start_ms.2
.LBE139:
.LBE138:
	.cfi_endproc
.LFE226:
	.size	main, .-main
	.section	.text.led_blinking_task,"ax",%progbits
	.align	1
	.p2align 2,,3
	.global	led_blinking_task
	.syntax unified
	.code	16
	.thumb_func
	.type	led_blinking_task, %function
led_blinking_task:
.LFB227:
	.loc 1 146 31 is_stmt 1 view -0
	.cfi_startproc
	@ args = 0, pretend = 0, frame = 0
	@ frame_needed = 0, uses_anonymous_args = 0
	.loc 1 147 2 view .LVU457
	.loc 1 148 2 view .LVU458
	.loc 1 149 2 view .LVU459
	.loc 1 150 2 view .LVU460
.LVL43:
	.loc 1 152 2 view .LVU461
.LBB152:
.LBI152:
	.loc 4 114 24 view .LVU462
	.loc 4 115 3 view .LVU463
.LBB153:
.LBI153:
	.loc 5 66 31 view .LVU464
.LBB154:
	.loc 5 67 5 view .LVU465
	.loc 5 68 5 view .LVU466
.LBE154:
.LBE153:
.LBE152:
	.loc 1 146 31 is_stmt 0 view .LVU467
	push	{r4, lr}
	.cfi_def_cfa_offset 8
	.cfi_offset 4, -8
	.cfi_offset 14, -4
.LBB165:
.LBB156:
.LBB155:
	.loc 5 68 5 view .LVU468
	bl	time_us_64
.LVL44:
	.loc 5 69 5 is_stmt 1 view .LVU469
	.loc 5 69 5 is_stmt 0 view .LVU470
.LBE155:
.LBE156:
.LBB157:
.LBI157:
	.loc 5 87 24 is_stmt 1 view .LVU471
.LBB158:
	.loc 5 88 5 view .LVU472
	.loc 5 89 5 view .LVU473
.LBB159:
.LBI159:
	.loc 5 72 24 view .LVU474
.LBB160:
	.loc 5 73 5 view .LVU475
	.loc 5 73 8 is_stmt 0 view .LVU476
	cmp	r1, #0
	beq	.L21
	.loc 5 74 9 is_stmt 1 view .LVU477
	.loc 5 74 30 is_stmt 0 view .LVU478
	movs	r2, #250
	movs	r3, #0
	lsls	r2, r2, #2
	bl	__aeabi_uldivmod
.LVL45:
.L23:
	.loc 5 74 30 view .LVU479
.LBE160:
.LBE159:
.LBE158:
.LBE157:
.LBE165:
	.loc 1 152 21 discriminator 1 view .LVU480
	ldr	r3, .L25
	ldr	r3, [r3]
	subs	r0, r0, r3
	.loc 1 152 5 discriminator 1 view .LVU481
	cmp	r0, #249
	bls	.L20
	bl	led_blinking_task.part.0
.LVL46:
.L20:
	.loc 1 176 1 view .LVU482
	@ sp needed
	pop	{r4, pc}
.LVL47:
.L21:
.LBB166:
.LBB164:
.LBB163:
.LBB162:
.LBB161:
	.loc 5 76 9 is_stmt 1 view .LVU483
	.loc 5 76 31 is_stmt 0 view .LVU484
	movs	r1, #250
.LVL48:
	.loc 5 76 31 view .LVU485
	lsls	r1, r1, #2
	bl	__aeabi_uidiv
.LVL49:
	.loc 5 76 31 view .LVU486
	b	.L23
.L26:
	.align	2
.L25:
	.word	start_ms.2
.LBE161:
.LBE162:
.LBE163:
.LBE164:
.LBE166:
	.cfi_endproc
.LFE227:
	.size	led_blinking_task, .-led_blinking_task
	.section	.rodata.tuh_mount_cb.str1.4,"aMS",%progbits,1
	.align	2
.LC22:
	.ascii	"A device with address %d is mounted\015\012\000"
	.section	.text.tuh_mount_cb,"ax",%progbits
	.align	1
	.p2align 2,,3
	.weak	tuh_mount_cb
	.syntax unified
	.code	16
	.thumb_func
	.type	tuh_mount_cb, %function
tuh_mount_cb:
.LVL50:
.LFB228:
	.loc 1 178 38 is_stmt 1 view -0
	.cfi_startproc
	@ args = 0, pretend = 0, frame = 0
	@ frame_needed = 0, uses_anonymous_args = 0
	.loc 1 179 2 view .LVU488
	.loc 1 178 38 is_stmt 0 view .LVU489
	push	{r4, lr}
	.cfi_def_cfa_offset 8
	.cfi_offset 4, -8
	.cfi_offset 14, -4
	.loc 1 179 2 view .LVU490
	ldr	r3, .L28
	.loc 1 178 38 view .LVU491
	movs	r1, r0
	.loc 1 180 1 view .LVU492
	@ sp needed
	.loc 1 179 2 view .LVU493
	movs	r0, r3
.LVL51:
	.loc 1 179 2 view .LVU494
	bl	printf
.LVL52:
	.loc 1 180 1 view .LVU495
	pop	{r4, pc}
.L29:
	.align	2
.L28:
	.word	.LC22
	.cfi_endproc
.LFE228:
	.size	tuh_mount_cb, .-tuh_mount_cb
	.section	.rodata.tun_umount_cb.str1.4,"aMS",%progbits,1
	.align	2
.LC24:
	.ascii	"A device with address %d is unmounted\015\012\000"
	.section	.text.tun_umount_cb,"ax",%progbits
	.align	1
	.p2align 2,,3
	.global	tun_umount_cb
	.syntax unified
	.code	16
	.thumb_func
	.type	tun_umount_cb, %function
tun_umount_cb:
.LVL53:
.LFB229:
	.loc 1 181 39 is_stmt 1 view -0
	.cfi_startproc
	@ args = 0, pretend = 0, frame = 0
	@ frame_needed = 0, uses_anonymous_args = 0
	.loc 1 182 2 view .LVU497
	.loc 1 181 39 is_stmt 0 view .LVU498
	push	{r4, lr}
	.cfi_def_cfa_offset 8
	.cfi_offset 4, -8
	.cfi_offset 14, -4
	.loc 1 182 2 view .LVU499
	ldr	r3, .L31
	.loc 1 181 39 view .LVU500
	movs	r1, r0
	.loc 1 183 1 view .LVU501
	@ sp needed
	.loc 1 182 2 view .LVU502
	movs	r0, r3
.LVL54:
	.loc 1 182 2 view .LVU503
	bl	printf
.LVL55:
	.loc 1 183 1 view .LVU504
	pop	{r4, pc}
.L32:
	.align	2
.L31:
	.word	.LC24
	.cfi_endproc
.LFE229:
	.size	tun_umount_cb, .-tun_umount_cb
	.section	.rodata.tuh_hid_mount_cb.str1.4,"aMS",%progbits,1
	.align	2
.LC26:
	.ascii	"HID device address = %d, instance = %d is mounted\015"
	.ascii	"\012\000"
	.align	2
.LC30:
	.ascii	"HID Interface Protocol = %s\015\012\000"
	.align	2
.LC33:
	.ascii	"HID has %u reports \015\012\000"
	.align	2
.LC35:
	.ascii	"Error: cannot request to receive report\015\000"
	.section	.text.tuh_hid_mount_cb,"ax",%progbits
	.align	1
	.p2align 2,,3
	.weak	tuh_hid_mount_cb
	.syntax unified
	.code	16
	.thumb_func
	.type	tuh_hid_mount_cb, %function
tuh_hid_mount_cb:
.LVL56:
.LFB230:
	.loc 1 190 3 is_stmt 1 view -0
	.cfi_startproc
	@ args = 0, pretend = 0, frame = 16
	@ frame_needed = 0, uses_anonymous_args = 0
	.loc 1 191 2 view .LVU506
	.loc 1 190 3 is_stmt 0 view .LVU507
	push	{r4, r5, r6, r7, lr}
	.cfi_def_cfa_offset 20
	.cfi_offset 4, -20
	.cfi_offset 5, -16
	.cfi_offset 6, -12
	.cfi_offset 7, -8
	.cfi_offset 14, -4
	mov	lr, r9
	mov	r7, r8
	movs	r5, r0
	push	{r7, lr}
	.cfi_def_cfa_offset 28
	.cfi_offset 8, -28
	.cfi_offset 9, -24
	sub	sp, sp, #20
	.cfi_def_cfa_offset 48
	.loc 1 190 3 view .LVU508
	movs	r4, r1
	.loc 1 194 14 view .LVU509
	add	r6, sp, #4
	.loc 1 190 3 view .LVU510
	mov	r8, r2
	.loc 1 191 2 view .LVU511
	ldr	r0, .L38
.LVL57:
	.loc 1 191 2 view .LVU512
	movs	r2, r1
.LVL58:
	.loc 1 191 2 view .LVU513
	movs	r1, r5
.LVL59:
	.loc 1 190 3 view .LVU514
	mov	r9, r3
	.loc 1 191 2 view .LVU515
	bl	printf
.LVL60:
	.loc 1 194 2 is_stmt 1 view .LVU516
	.loc 1 194 14 is_stmt 0 view .LVU517
	movs	r3, r6
	ldr	r1, .L38+4
	ldmia	r1!, {r0, r2, r7}
	stmia	r3!, {r0, r2, r7}
	.loc 1 195 2 is_stmt 1 view .LVU518
	.loc 1 195 31 is_stmt 0 view .LVU519
	movs	r1, r4
	movs	r0, r5
	bl	tuh_hid_interface_protocol
.LVL61:
	.loc 1 197 2 view .LVU520
	lsls	r3, r0, #2
	.loc 1 195 31 view .LVU521
	movs	r7, r0
.LVL62:
	.loc 1 197 2 is_stmt 1 view .LVU522
	ldr	r1, [r3, r6]
	ldr	r0, .L38+8
.LVL63:
	.loc 1 197 2 is_stmt 0 view .LVU523
	bl	printf
.LVL64:
	.loc 1 201 2 is_stmt 1 view .LVU524
	.loc 1 201 5 is_stmt 0 view .LVU525
	cmp	r7, #0
	beq	.L36
	.loc 1 209 2 is_stmt 1 view .LVU526
	.loc 1 209 8 is_stmt 0 view .LVU527
	movs	r1, r4
	movs	r0, r5
	bl	tuh_hid_receive_report
.LVL65:
	.loc 1 209 5 discriminator 1 view .LVU528
	cmp	r0, #0
	beq	.L37
.L33:
	.loc 1 213 1 view .LVU529
	add	sp, sp, #20
	@ sp needed
.LVL66:
.LVL67:
.LVL68:
.LVL69:
	.loc 1 213 1 view .LVU530
	pop	{r6, r7}
	mov	r9, r7
	mov	r8, r6
	pop	{r4, r5, r6, r7, pc}
.LVL70:
.L36:
	.loc 1 203 3 is_stmt 1 view .LVU531
	.loc 1 203 87 is_stmt 0 view .LVU532
	lsls	r6, r4, #3
	adds	r6, r6, r4
	ldr	r7, .L38+12
	lsls	r6, r6, #1
	adds	r0, r6, #2
	.loc 1 203 37 view .LVU533
	mov	r3, r9
	mov	r2, r8
	movs	r1, #4
	.loc 1 203 87 view .LVU534
	adds	r0, r0, r7
	.loc 1 203 37 view .LVU535
	bl	tuh_hid_parse_report_descriptor
.LVL71:
	movs	r1, r0
	.loc 1 203 35 discriminator 1 view .LVU536
	strb	r0, [r7, r6]
	.loc 1 204 3 is_stmt 1 view .LVU537
	ldr	r0, .L38+16
	bl	printf
.LVL72:
	.loc 1 209 2 view .LVU538
	.loc 1 209 8 is_stmt 0 view .LVU539
	movs	r1, r4
	movs	r0, r5
	bl	tuh_hid_receive_report
.LVL73:
	.loc 1 209 5 discriminator 1 view .LVU540
	cmp	r0, #0
	bne	.L33
.L37:
	.loc 1 211 3 is_stmt 1 view .LVU541
	ldr	r0, .L38+20
	bl	puts
.LVL74:
	.loc 1 213 1 is_stmt 0 view .LVU542
	b	.L33
.L39:
	.align	2
.L38:
	.word	.LC26
	.word	.LANCHOR0
	.word	.LC30
	.word	hid_info
	.word	.LC33
	.word	.LC35
	.cfi_endproc
.LFE230:
	.size	tuh_hid_mount_cb, .-tuh_hid_mount_cb
	.section	.rodata.tuh_hid_umount_cb.str1.4,"aMS",%progbits,1
	.align	2
.LC37:
	.ascii	"HID device address = %d, instance = %d is unmounted"
	.ascii	"\015\012\000"
	.section	.text.tuh_hid_umount_cb,"ax",%progbits
	.align	1
	.p2align 2,,3
	.weak	tuh_hid_umount_cb
	.syntax unified
	.code	16
	.thumb_func
	.type	tuh_hid_umount_cb, %function
tuh_hid_umount_cb:
.LVL75:
.LFB231:
	.loc 1 215 60 is_stmt 1 view -0
	.cfi_startproc
	@ args = 0, pretend = 0, frame = 0
	@ frame_needed = 0, uses_anonymous_args = 0
	.loc 1 216 2 view .LVU544
	.loc 1 215 60 is_stmt 0 view .LVU545
	push	{r4, lr}
	.cfi_def_cfa_offset 8
	.cfi_offset 4, -8
	.cfi_offset 14, -4
	.loc 1 216 2 view .LVU546
	ldr	r3, .L41
	.loc 1 215 60 view .LVU547
	movs	r2, r1
	.loc 1 220 1 view .LVU548
	@ sp needed
	.loc 1 216 2 view .LVU549
	movs	r1, r0
.LVL76:
	.loc 1 216 2 view .LVU550
	movs	r0, r3
.LVL77:
	.loc 1 216 2 view .LVU551
	bl	printf
.LVL78:
	.loc 1 220 1 view .LVU552
	pop	{r4, pc}
.L42:
	.align	2
.L41:
	.word	.LC37
	.cfi_endproc
.LFE231:
	.size	tuh_hid_umount_cb, .-tuh_hid_umount_cb
	.section	.rodata.tuh_hid_report_received_cb.str1.4,"aMS",%progbits,1
	.align	2
.LC39:
	.ascii	"\033[H\033[J\000"
	.align	2
.LC41:
	.ascii	"\033[%d;%df\342\226\222\000"
	.section	.text.tuh_hid_report_received_cb,"ax",%progbits
	.align	1
	.p2align 2,,3
	.global	tuh_hid_report_received_cb
	.syntax unified
	.code	16
	.thumb_func
	.type	tuh_hid_report_received_cb, %function
tuh_hid_report_received_cb:
.LVL79:
.LFB232:
	.loc 1 227 3 is_stmt 1 view -0
	.cfi_startproc
	@ args = 0, pretend = 0, frame = 0
	@ frame_needed = 0, uses_anonymous_args = 0
	.loc 1 228 2 view .LVU554
	.loc 1 227 3 is_stmt 0 view .LVU555
	push	{r4, r5, r6, lr}
	.cfi_def_cfa_offset 16
	.cfi_offset 4, -16
	.cfi_offset 5, -12
	.cfi_offset 6, -8
	.cfi_offset 14, -4
	.loc 1 227 3 view .LVU556
	movs	r4, r0
	movs	r5, r1
	movs	r6, r2
	.loc 1 228 31 view .LVU557
	bl	tuh_hid_interface_protocol
.LVL80:
	.loc 1 230 2 is_stmt 1 view .LVU558
	cmp	r0, #1
	beq	.L44
.LVL81:
.L47:
	.loc 1 239 2 view .LVU559
	.loc 1 239 8 is_stmt 0 view .LVU560
	movs	r1, r5
	movs	r0, r4
	bl	tuh_hid_receive_report
.LVL82:
	.loc 1 239 5 discriminator 1 view .LVU561
	cmp	r0, #0
	beq	.L85
.L43:
	.loc 1 243 1 view .LVU562
	@ sp needed
.LVL83:
.LVL84:
.LVL85:
	.loc 1 243 1 view .LVU563
	pop	{r4, r5, r6, pc}
.LVL86:
.L85:
	.loc 1 241 3 is_stmt 1 view .LVU564
	ldr	r0, .L89
	bl	puts
.LVL87:
	.loc 1 243 1 is_stmt 0 view .LVU565
	b	.L43
.LVL88:
.L44:
	.loc 1 233 50 is_stmt 1 view .LVU566
	.loc 1 234 3 view .LVU567
.LBB179:
.LBI179:
	.loc 1 245 13 view .LVU568
.LBB180:
	.loc 1 246 2 view .LVU569
	.loc 1 247 2 view .LVU570
	.loc 1 250 2 view .LVU571
	.loc 1 250 5 is_stmt 0 view .LVU572
	movs	r2, #119
	ldrb	r3, [r6]
	bics	r3, r2
	bne	.L47
	.loc 1 254 2 is_stmt 1 view .LVU573
.LBB181:
.LBI181:
	.loc 1 280 13 view .LVU574
.LBB182:
	.loc 1 281 2 view .LVU575
	ldr	r0, .L89+4
.LVL89:
	.loc 1 281 2 is_stmt 0 view .LVU576
	bl	printf
.LVL90:
.LBE182:
.LBE181:
	.loc 1 256 2 is_stmt 1 view .LVU577
	.loc 1 256 5 is_stmt 0 view .LVU578
	movs	r2, #68
	.loc 1 256 15 view .LVU579
	ldrb	r3, [r6]
	.loc 1 256 5 view .LVU580
	tst	r2, r3
	bne	.L86
.L48:
	.loc 1 260 2 is_stmt 1 view .LVU581
	.loc 1 260 5 is_stmt 0 view .LVU582
	movs	r2, #34
	tst	r2, r3
	bne	.L87
.L49:
	.loc 1 264 2 is_stmt 1 view .LVU583
	.loc 1 264 5 is_stmt 0 view .LVU584
	movs	r2, #17
	tst	r2, r3
	bne	.L88
.L50:
.LVL91:
	.loc 1 269 3 is_stmt 1 view .LVU585
	.loc 1 269 16 is_stmt 0 view .LVU586
	ldrb	r3, [r6, #2]
.LVL92:
	.loc 1 269 6 view .LVU587
	cmp	r3, #0
	beq	.L51
	.loc 1 269 54 discriminator 1 view .LVU588
	ldr	r2, .L89+8
	ldrb	r1, [r2, r3]
	.loc 1 269 38 discriminator 1 view .LVU589
	cmp	r1, #6
	bhi	.L51
	.loc 1 270 4 is_stmt 1 view .LVU590
.LVL93:
.LBB183:
.LBI183:
	.loc 1 275 13 view .LVU591
.LBB184:
	.loc 1 276 2 view .LVU592
.LBE184:
.LBE183:
	.loc 1 270 51 is_stmt 0 view .LVU593
	ldr	r2, .L89+12
.LBB203:
.LBB185:
	.loc 1 276 6 view .LVU594
	adds	r1, r1, #1
.LVL94:
	.loc 1 276 12 is_stmt 1 view .LVU595
	.loc 1 277 2 view .LVU596
.LBE185:
.LBE203:
	.loc 1 270 4 is_stmt 0 view .LVU597
	ldrb	r2, [r2, r3]
.LVL95:
.LBB204:
.LBB186:
	.loc 1 278 2 view .LVU598
	ldr	r0, .L89+16
	.loc 1 277 6 view .LVU599
	adds	r2, r2, #1
.LVL96:
	.loc 1 277 12 is_stmt 1 view .LVU600
	.loc 1 278 2 view .LVU601
	.loc 1 277 16 is_stmt 0 view .LVU602
	lsls	r2, r2, #1
.LVL97:
	.loc 1 276 16 view .LVU603
	lsls	r1, r1, #1
.LVL98:
	.loc 1 278 2 view .LVU604
	bl	printf
.LVL99:
.L51:
	.loc 1 278 2 view .LVU605
.LBE186:
.LBE204:
	.loc 1 268 22 is_stmt 1 discriminator 2 view .LVU606
	.loc 1 268 16 discriminator 1 view .LVU607
	.loc 1 269 3 view .LVU608
	.loc 1 269 16 is_stmt 0 view .LVU609
	ldrb	r3, [r6, #3]
.LVL100:
	.loc 1 269 6 view .LVU610
	cmp	r3, #0
	beq	.L52
	.loc 1 269 54 discriminator 1 view .LVU611
	ldr	r2, .L89+8
	ldrb	r1, [r2, r3]
	.loc 1 269 38 discriminator 1 view .LVU612
	cmp	r1, #6
	bhi	.L52
	.loc 1 270 4 is_stmt 1 view .LVU613
.LVL101:
.LBB205:
	.loc 1 275 13 view .LVU614
.LBB187:
	.loc 1 276 2 view .LVU615
.LBE187:
.LBE205:
	.loc 1 270 51 is_stmt 0 view .LVU616
	ldr	r2, .L89+12
.LBB206:
.LBB188:
	.loc 1 276 6 view .LVU617
	adds	r1, r1, #1
.LVL102:
	.loc 1 276 12 is_stmt 1 view .LVU618
	.loc 1 277 2 view .LVU619
.LBE188:
.LBE206:
	.loc 1 270 4 is_stmt 0 view .LVU620
	ldrb	r2, [r2, r3]
.LVL103:
.LBB207:
.LBB189:
	.loc 1 278 2 view .LVU621
	ldr	r0, .L89+16
	.loc 1 277 6 view .LVU622
	adds	r2, r2, #1
.LVL104:
	.loc 1 277 12 is_stmt 1 view .LVU623
	.loc 1 278 2 view .LVU624
	.loc 1 277 16 is_stmt 0 view .LVU625
	lsls	r2, r2, #1
.LVL105:
	.loc 1 276 16 view .LVU626
	lsls	r1, r1, #1
.LVL106:
	.loc 1 278 2 view .LVU627
	bl	printf
.LVL107:
.L52:
	.loc 1 278 2 view .LVU628
.LBE189:
.LBE207:
	.loc 1 268 22 is_stmt 1 discriminator 2 view .LVU629
	.loc 1 268 16 discriminator 1 view .LVU630
	.loc 1 269 3 view .LVU631
	.loc 1 269 16 is_stmt 0 view .LVU632
	ldrb	r3, [r6, #4]
.LVL108:
	.loc 1 269 6 view .LVU633
	cmp	r3, #0
	beq	.L53
	.loc 1 269 54 discriminator 1 view .LVU634
	ldr	r2, .L89+8
	ldrb	r1, [r2, r3]
	.loc 1 269 38 discriminator 1 view .LVU635
	cmp	r1, #6
	bhi	.L53
	.loc 1 270 4 is_stmt 1 view .LVU636
.LVL109:
.LBB208:
	.loc 1 275 13 view .LVU637
.LBB190:
	.loc 1 276 2 view .LVU638
.LBE190:
.LBE208:
	.loc 1 270 51 is_stmt 0 view .LVU639
	ldr	r2, .L89+12
.LBB209:
.LBB191:
	.loc 1 276 6 view .LVU640
	adds	r1, r1, #1
.LVL110:
	.loc 1 276 12 is_stmt 1 view .LVU641
	.loc 1 277 2 view .LVU642
.LBE191:
.LBE209:
	.loc 1 270 4 is_stmt 0 view .LVU643
	ldrb	r2, [r2, r3]
.LVL111:
.LBB210:
.LBB192:
	.loc 1 278 2 view .LVU644
	ldr	r0, .L89+16
	.loc 1 277 6 view .LVU645
	adds	r2, r2, #1
.LVL112:
	.loc 1 277 12 is_stmt 1 view .LVU646
	.loc 1 278 2 view .LVU647
	.loc 1 277 16 is_stmt 0 view .LVU648
	lsls	r2, r2, #1
.LVL113:
	.loc 1 276 16 view .LVU649
	lsls	r1, r1, #1
.LVL114:
	.loc 1 278 2 view .LVU650
	bl	printf
.LVL115:
.L53:
	.loc 1 278 2 view .LVU651
.LBE192:
.LBE210:
	.loc 1 268 22 is_stmt 1 discriminator 2 view .LVU652
	.loc 1 268 16 discriminator 1 view .LVU653
	.loc 1 269 3 view .LVU654
	.loc 1 269 16 is_stmt 0 view .LVU655
	ldrb	r3, [r6, #5]
.LVL116:
	.loc 1 269 6 view .LVU656
	cmp	r3, #0
	beq	.L54
	.loc 1 269 54 discriminator 1 view .LVU657
	ldr	r2, .L89+8
	ldrb	r1, [r2, r3]
	.loc 1 269 38 discriminator 1 view .LVU658
	cmp	r1, #6
	bhi	.L54
	.loc 1 270 4 is_stmt 1 view .LVU659
.LVL117:
.LBB211:
	.loc 1 275 13 view .LVU660
.LBB193:
	.loc 1 276 2 view .LVU661
.LBE193:
.LBE211:
	.loc 1 270 51 is_stmt 0 view .LVU662
	ldr	r2, .L89+12
.LBB212:
.LBB194:
	.loc 1 276 6 view .LVU663
	adds	r1, r1, #1
.LVL118:
	.loc 1 276 12 is_stmt 1 view .LVU664
	.loc 1 277 2 view .LVU665
.LBE194:
.LBE212:
	.loc 1 270 4 is_stmt 0 view .LVU666
	ldrb	r2, [r2, r3]
.LVL119:
.LBB213:
.LBB195:
	.loc 1 278 2 view .LVU667
	ldr	r0, .L89+16
	.loc 1 277 6 view .LVU668
	adds	r2, r2, #1
.LVL120:
	.loc 1 277 12 is_stmt 1 view .LVU669
	.loc 1 278 2 view .LVU670
	.loc 1 277 16 is_stmt 0 view .LVU671
	lsls	r2, r2, #1
.LVL121:
	.loc 1 276 16 view .LVU672
	lsls	r1, r1, #1
.LVL122:
	.loc 1 278 2 view .LVU673
	bl	printf
.LVL123:
.L54:
	.loc 1 278 2 view .LVU674
.LBE195:
.LBE213:
	.loc 1 268 22 is_stmt 1 discriminator 2 view .LVU675
	.loc 1 268 16 discriminator 1 view .LVU676
	.loc 1 269 3 view .LVU677
	.loc 1 269 16 is_stmt 0 view .LVU678
	ldrb	r3, [r6, #6]
.LVL124:
	.loc 1 269 6 view .LVU679
	cmp	r3, #0
	beq	.L55
	.loc 1 269 54 discriminator 1 view .LVU680
	ldr	r2, .L89+8
	ldrb	r1, [r2, r3]
	.loc 1 269 38 discriminator 1 view .LVU681
	cmp	r1, #6
	bhi	.L55
	.loc 1 270 4 is_stmt 1 view .LVU682
.LVL125:
.LBB214:
	.loc 1 275 13 view .LVU683
.LBB196:
	.loc 1 276 2 view .LVU684
.LBE196:
.LBE214:
	.loc 1 270 51 is_stmt 0 view .LVU685
	ldr	r2, .L89+12
.LBB215:
.LBB197:
	.loc 1 276 6 view .LVU686
	adds	r1, r1, #1
.LVL126:
	.loc 1 276 12 is_stmt 1 view .LVU687
	.loc 1 277 2 view .LVU688
.LBE197:
.LBE215:
	.loc 1 270 4 is_stmt 0 view .LVU689
	ldrb	r2, [r2, r3]
.LVL127:
.LBB216:
.LBB198:
	.loc 1 278 2 view .LVU690
	ldr	r0, .L89+16
	.loc 1 277 6 view .LVU691
	adds	r2, r2, #1
.LVL128:
	.loc 1 277 12 is_stmt 1 view .LVU692
	.loc 1 278 2 view .LVU693
	.loc 1 277 16 is_stmt 0 view .LVU694
	lsls	r2, r2, #1
.LVL129:
	.loc 1 276 16 view .LVU695
	lsls	r1, r1, #1
.LVL130:
	.loc 1 278 2 view .LVU696
	bl	printf
.LVL131:
.L55:
	.loc 1 278 2 view .LVU697
.LBE198:
.LBE216:
	.loc 1 268 22 is_stmt 1 discriminator 2 view .LVU698
	.loc 1 268 16 discriminator 1 view .LVU699
	.loc 1 269 3 view .LVU700
	.loc 1 269 16 is_stmt 0 view .LVU701
	ldrb	r3, [r6, #7]
.LVL132:
	.loc 1 269 6 view .LVU702
	cmp	r3, #0
	bne	.LCB1592
	b	.L47	@long jump
.LCB1592:
	.loc 1 269 54 discriminator 1 view .LVU703
	ldr	r2, .L89+8
	ldrb	r1, [r2, r3]
	.loc 1 269 38 discriminator 1 view .LVU704
	cmp	r1, #6
	bls	.LCB1596
	b	.L47	@long jump
.LCB1596:
	.loc 1 270 4 is_stmt 1 view .LVU705
.LVL133:
.LBB217:
	.loc 1 275 13 view .LVU706
.LBB199:
	.loc 1 276 2 view .LVU707
.LBE199:
.LBE217:
	.loc 1 270 51 is_stmt 0 view .LVU708
	ldr	r2, .L89+12
.LBB218:
.LBB200:
	.loc 1 276 6 view .LVU709
	adds	r1, r1, #1
.LVL134:
	.loc 1 276 12 is_stmt 1 view .LVU710
	.loc 1 277 2 view .LVU711
.LBE200:
.LBE218:
	.loc 1 270 4 is_stmt 0 view .LVU712
	ldrb	r2, [r2, r3]
.LVL135:
.LBB219:
.LBB201:
	.loc 1 276 16 view .LVU713
	lsls	r1, r1, #1
.LVL136:
	.loc 1 277 6 view .LVU714
	adds	r2, r2, #1
.LVL137:
	.loc 1 277 12 is_stmt 1 view .LVU715
	.loc 1 278 2 view .LVU716
	.loc 1 277 16 is_stmt 0 view .LVU717
	lsls	r2, r2, #1
.LVL138:
	.loc 1 278 2 view .LVU718
	ldr	r0, .L89+16
	bl	printf
.LVL139:
	.loc 1 278 2 view .LVU719
.LBE201:
.LBE219:
	.loc 1 268 22 is_stmt 1 discriminator 2 view .LVU720
	.loc 1 268 16 discriminator 1 view .LVU721
.LBB220:
.LBB202:
	.loc 1 279 1 is_stmt 0 view .LVU722
	b	.L47
.LVL140:
.L88:
	.loc 1 279 1 view .LVU723
.LBE202:
.LBE220:
	.loc 1 266 3 is_stmt 1 view .LVU724
.LBB221:
.LBI221:
	.loc 1 275 13 view .LVU725
.LBB222:
	.loc 1 276 2 view .LVU726
	.loc 1 276 12 view .LVU727
	.loc 1 277 2 view .LVU728
	.loc 1 277 12 view .LVU729
	.loc 1 278 2 view .LVU730
	movs	r1, #14
	subs	r2, r2, #7
	ldr	r0, .L89+16
	bl	printf
.LVL141:
	.loc 1 278 2 is_stmt 0 view .LVU731
.LBE222:
.LBE221:
	.loc 1 268 16 is_stmt 1 discriminator 1 view .LVU732
	b	.L50
.LVL142:
.L87:
	.loc 1 262 3 view .LVU733
.LBB223:
.LBI223:
	.loc 1 275 13 view .LVU734
.LBB224:
	.loc 1 276 2 view .LVU735
	.loc 1 276 12 view .LVU736
	.loc 1 277 2 view .LVU737
	.loc 1 277 12 view .LVU738
	.loc 1 278 2 view .LVU739
	movs	r1, #14
	ldr	r0, .L89+16
	subs	r2, r2, #18
	bl	printf
.LVL143:
	.loc 1 278 2 is_stmt 0 view .LVU740
.LBE224:
.LBE223:
	.loc 1 264 15 view .LVU741
	ldrb	r3, [r6]
.LBB226:
.LBB225:
	.loc 1 279 1 view .LVU742
	b	.L49
.L86:
	.loc 1 279 1 view .LVU743
.LBE225:
.LBE226:
	.loc 1 258 3 is_stmt 1 view .LVU744
.LVL144:
.LBB227:
.LBI227:
	.loc 1 275 13 view .LVU745
.LBB228:
	.loc 1 276 2 view .LVU746
	.loc 1 276 12 view .LVU747
	.loc 1 277 2 view .LVU748
	.loc 1 277 12 view .LVU749
	.loc 1 278 2 view .LVU750
	movs	r1, #14
	ldr	r0, .L89+16
	subs	r2, r2, #60
	bl	printf
.LVL145:
	.loc 1 278 2 is_stmt 0 view .LVU751
.LBE228:
.LBE227:
	.loc 1 260 15 view .LVU752
	ldrb	r3, [r6]
.LBB230:
.LBB229:
	.loc 1 279 1 view .LVU753
	b	.L48
.L90:
	.align	2
.L89:
	.word	.LC35
	.word	.LC39
	.word	matrix_row_of
	.word	matrix_col_of
	.word	.LC41
.LBE229:
.LBE230:
.LBE180:
.LBE179:
	.cfi_endproc
.LFE232:
	.size	tuh_hid_report_received_cb, .-tuh_hid_report_received_cb
	.section	.rodata.str1.4,"aMS",%progbits,1
	.align	2
.LC0:
	.ascii	"None\000"
	.align	2
.LC1:
	.ascii	"Keyboard\000"
	.align	2
.LC2:
	.ascii	"Mouse\000"
	.section	.data.pins.0,"aw"
	.align	2
	.type	pins.0, %object
	.size	pins.0, 4
pins.0:
	.word	16
	.section	.bss.led_state.1,"aw",%nobits
	.type	led_state.1, %object
	.size	led_state.1, 1
led_state.1:
	.space	1
	.section	.bss.start_ms.2,"aw",%nobits
	.align	2
	.type	start_ms.2, %object
	.size	start_ms.2, 4
start_ms.2:
	.space	4
	.section	.bss.hid_info,"aw",%nobits
	.align	2
	.type	hid_info, %object
	.size	hid_info, 216
hid_info:
	.space	216
	.section	.bss.matrix_col_of,"aw",%nobits
	.align	2
	.type	matrix_col_of, %object
	.size	matrix_col_of, 256
matrix_col_of:
	.space	256
	.section	.bss.matrix_row_of,"aw",%nobits
	.align	2
	.type	matrix_row_of, %object
	.size	matrix_row_of, 256
matrix_row_of:
	.space	256
	.section	.rodata
	.align	2
	.set	.LANCHOR0,. + 0
.LC28:
	.word	.LC0
	.word	.LC1
	.word	.LC2
	.weak	board_init_after_tusb
	.text
.Letext0:
	.file 6 "/home/henry/.pico-sdk/toolchain/13_2_Rel1/arm-none-eabi/include/machine/_default_types.h"
	.file 7 "/home/henry/.pico-sdk/toolchain/13_2_Rel1/arm-none-eabi/include/sys/_stdint.h"
	.file 8 "/home/henry/.pico-sdk/sdk/2.0.0/src/common/pico_base_headers/include/pico/types.h"
	.file 9 "/home/henry/.pico-sdk/sdk/2.0.0/src/rp2_common/hardware_base/include/hardware/address_mapped.h"
	.file 10 "/home/henry/.pico-sdk/sdk/2.0.0/src/rp2040/hardware_structs/include/hardware/structs/interp.h"
	.file 11 "/home/henry/.pico-sdk/sdk/2.0.0/src/rp2040/hardware_structs/include/hardware/structs/sio.h"
	.file 12 "/home/henry/.pico-sdk/sdk/2.0.0/src/rp2040/hardware_regs/include/hardware/regs/intctrl.h"
	.file 13 "/home/henry/.pico-sdk/sdk/2.0.0/src/rp2040/hardware_regs/include/hardware/regs/dreq.h"
	.file 14 "/home/henry/.pico-sdk/sdk/2.0.0/lib/tinyusb/src/class/hid/hid.h"
	.file 15 "/home/henry/.pico-sdk/sdk/2.0.0/lib/tinyusb/src/class/hid/hid_host.h"
	.file 16 "/home/henry/.pico-sdk/toolchain/13_2_Rel1/arm-none-eabi/include/stdio.h"
	.file 17 "/home/henry/.pico-sdk/sdk/2.0.0/src/rp2_common/hardware_timer/include/hardware/timer.h"
	.file 18 "/home/henry/.pico-sdk/sdk/2.0.0/src/rp2_common/pico_stdio/include/pico/stdio.h"
	.file 19 "<built-in>"